target datalayout = "e-m:e-p270:32:32-p271:32:32-p272:64:64-i64:64-i128:128-f80:128-n8:16:32:64-S128"
target triple = "x86_64-pc-linux-gnu"

%struct.strbuf = type { i64, i64, ptr }
%struct.loose_object_map = type { ptr, ptr }
%struct.repository = type { ptr, ptr, ptr, ptr, ptr, %struct.strmap, %struct.strmap, %struct.repo_path_cache, ptr, ptr, ptr, ptr, %struct.repo_settings, ptr, ptr, ptr, ptr, ptr, ptr, i32, i32, i32, ptr, ptr, i32, i32, i8 }
%struct.strmap = type { %struct.hashmap, ptr, i8 }
%struct.hashmap = type { ptr, ptr, ptr, i32, i32, i32, i32, i8 }
%struct.repo_path_cache = type { ptr, ptr, ptr, ptr, ptr, ptr, ptr }
%struct.repo_settings = type { i32, i32, i32, i32, i32, i32, i32, i32, i32, i32, i32, i32, ptr, i32, i32, i32, i32, i32, i32, i32, i64, i64, i64 }
%struct.raw_object_store = type { ptr, ptr, ptr, i32, ptr, ptr, i8, %union.pthread_mutex_t, ptr, i8, ptr, ptr, %struct.list_head, %struct.anon, %struct.hashmap, i64, i8 }
%union.pthread_mutex_t = type { %struct.__pthread_mutex_s }
%struct.__pthread_mutex_s = type { i32, i32, i32, i32, i32, i16, i16, %struct.__pthread_internal_list }
%struct.__pthread_internal_list = type { ptr, ptr }
%struct.list_head = type { ptr, ptr }
%struct.anon = type { ptr, i32 }
%struct.object_directory = type { ptr, [8 x i32], ptr, ptr, i32, i32, ptr }
%struct.object_id = type { [32 x i8], i32 }
%struct.git_hash_algo = type { ptr, i32, i64, i64, i64, ptr, ptr, ptr, ptr, ptr, ptr, ptr, ptr, ptr }
%struct.lock_file = type { ptr }
%struct.kh_oid_map = type { i32, i32, i32, i32, ptr, ptr, ptr }

@strbuf_slopbuf = external global [0 x i8], align 1
@__const.repo_write_loose_object_map.buf = private unnamed_addr constant %struct.strbuf { i64 0, i64 0, ptr @strbuf_slopbuf }, align 8
@__const.repo_write_loose_object_map.path = private unnamed_addr constant %struct.strbuf { i64 0, i64 0, ptr @strbuf_slopbuf }, align 8
@.str = private unnamed_addr constant [25 x i8] c"objects/loose-object-idx\00", align 1
@loose_object_header = internal global ptr @.str.6, align 8
@.str.1 = private unnamed_addr constant [7 x i8] c"%s %s\0A\00", align 1
@.str.2 = private unnamed_addr constant [38 x i8] c"could not write loose object index %s\00", align 1
@.str.3 = private unnamed_addr constant [38 x i8] c"failed to write loose object index %s\00", align 1
@.str.7 = private unnamed_addr constant [11 x i8] c"./strbuf.h\00", align 1
@.str.8 = private unnamed_addr constant [30 x i8] c"strbuf_setlen() beyond buffer\00", align 1
@.str.9 = private unnamed_addr constant [1 x i8] zeroinitializer, align 1
@git_gettext_enabled = external global i32, align 4

; Function Attrs: inlinehint nounwind uwtable
define internal i32 @rollback_lock_file(ptr noundef %0) #3 {
  %2 = alloca ptr, align 8
  store ptr %0, ptr %2, align 8, !tbaa !85
  %3 = load ptr, ptr %2, align 8, !tbaa !85
  %4 = getelementptr inbounds nuw %struct.lock_file, ptr %3, i32 0, i32 0
  %5 = call i32 @delete_tempfile(ptr noundef %4)
  ret i32 %5
}

; Function Attrs: inlinehint nounwind uwtable
define internal i32 @const_error() #3 {
  ret i32 -1
}

; Function Attrs: inlinehint nounwind uwtable
define internal ptr @_(ptr noundef %0) #3 {
  %2 = alloca ptr, align 8
  %3 = alloca ptr, align 8
  store ptr %0, ptr %3, align 8, !tbaa !72
  %4 = load ptr, ptr %3, align 8, !tbaa !72
  %5 = load i8, ptr %4, align 1, !tbaa !73
  %6 = icmp ne i8 %5, 0
  br i1 %6, label %8, label %7

7:                                                ; preds = %1
  store ptr @.str.9, ptr %2, align 8
  br label %16

8:                                                ; preds = %1
  %9 = load i32, ptr @git_gettext_enabled, align 4, !tbaa !71
  %10 = icmp ne i32 %9, 0
  br i1 %10, label %13, label %11

11:                                               ; preds = %8
  %12 = load ptr, ptr %3, align 8, !tbaa !72
  store ptr %12, ptr %2, align 8
  br label %16

13:                                               ; preds = %8
  %14 = load ptr, ptr %3, align 8, !tbaa !72
  %15 = call ptr @dcgettext(ptr noundef null, ptr noundef %14, i32 noundef 5) #11
  store ptr %15, ptr %2, align 8
  br label %16

16:                                               ; preds = %13, %11, %7
  %17 = load ptr, ptr %2, align 8
  ret ptr %17
}

; Function Attrs: inlinehint nounwind uwtable
define internal void @strbuf_setlen(ptr noundef %0, i64 noundef %1) #3 {
  %3 = alloca ptr, align 8
  %4 = alloca i64, align 8
  store ptr %0, ptr %3, align 8, !tbaa !89
  store i64 %1, ptr %4, align 8, !tbaa !87
  %5 = load i64, ptr %4, align 8, !tbaa !87
  %6 = load ptr, ptr %3, align 8, !tbaa !89
  %7 = getelementptr inbounds nuw %struct.strbuf, ptr %6, i32 0, i32 0
  %8 = load i64, ptr %7, align 8, !tbaa !91
  %9 = icmp ne i64 %8, 0
  br i1 %9, label %10, label %15

10:                                               ; preds = %2
  %11 = load ptr, ptr %3, align 8, !tbaa !89
  %12 = getelementptr inbounds nuw %struct.strbuf, ptr %11, i32 0, i32 0
  %13 = load i64, ptr %12, align 8, !tbaa !91
  %14 = sub i64 %13, 1
  br label %16

15:                                               ; preds = %2
  br label %16

16:                                               ; preds = %15, %10
  %17 = phi i64 [ %14, %10 ], [ 0, %15 ]
  %18 = icmp ugt i64 %5, %17
  br i1 %18, label %19, label %20

19:                                               ; preds = %16
  call void (ptr, i32, ptr, ...) @BUG_fl(ptr noundef @.str.7, i32 noundef 167, ptr noundef @.str.8) #14
  unreachable

20:                                               ; preds = %16
  %21 = load i64, ptr %4, align 8, !tbaa !87
  %22 = load ptr, ptr %3, align 8, !tbaa !89
  %23 = getelementptr inbounds nuw %struct.strbuf, ptr %22, i32 0, i32 1
  store i64 %21, ptr %23, align 8, !tbaa !74
  %24 = load ptr, ptr %3, align 8, !tbaa !89
  %25 = getelementptr inbounds nuw %struct.strbuf, ptr %24, i32 0, i32 2
  %26 = load ptr, ptr %25, align 8, !tbaa !67
  %27 = icmp ne ptr %26, @strbuf_slopbuf
  br i1 %27, label %28, label %34

28:                                               ; preds = %20
  %29 = load ptr, ptr %3, align 8, !tbaa !89
  %30 = getelementptr inbounds nuw %struct.strbuf, ptr %29, i32 0, i32 2
  %31 = load ptr, ptr %30, align 8, !tbaa !67
  %32 = load i64, ptr %4, align 8, !tbaa !87
  %33 = getelementptr inbounds nuw i8, ptr %31, i64 %32
  store i8 0, ptr %33, align 1, !tbaa !73
  br label %35

34:                                               ; preds = %20
  br label %35

35:                                               ; preds = %34, %28
  ret void
}

; Function Attrs: inlinehint nounwind uwtable
define internal i32 @oideq(ptr noundef %0, ptr noundef %1) #3 {
  %3 = alloca ptr, align 8
  %4 = alloca ptr, align 8
  store ptr %0, ptr %3, align 8, !tbaa !88
  store ptr %1, ptr %4, align 8, !tbaa !88
  %5 = load ptr, ptr %3, align 8, !tbaa !88
  %6 = getelementptr inbounds nuw %struct.object_id, ptr %5, i32 0, i32 0
  %7 = getelementptr inbounds [32 x i8], ptr %6, i64 0, i64 0
  %8 = load ptr, ptr %4, align 8, !tbaa !88
  %9 = getelementptr inbounds nuw %struct.object_id, ptr %8, i32 0, i32 0
  %10 = getelementptr inbounds [32 x i8], ptr %9, i64 0, i64 0
  %11 = call i32 @memcmp(ptr noundef %7, ptr noundef %10, i64 noundef 32) #13
  %12 = icmp ne i32 %11, 0
  %13 = xor i1 %12, true
  %14 = zext i1 %13 to i32
  ret i32 %14
}

; Function Attrs: inlinehint nounwind uwtable
define internal i32 @hold_lock_file_for_update_timeout(ptr noundef %0, ptr noundef %1, i32 noundef %2, i64 noundef %3) #3 {
  %5 = alloca ptr, align 8
  %6 = alloca ptr, align 8
  %7 = alloca i32, align 4
  %8 = alloca i64, align 8
  store ptr %0, ptr %5, align 8, !tbaa !85
  store ptr %1, ptr %6, align 8, !tbaa !72
  store i32 %2, ptr %7, align 4, !tbaa !71
  store i64 %3, ptr %8, align 8, !tbaa !87
  %9 = load ptr, ptr %5, align 8, !tbaa !85
  %10 = load ptr, ptr %6, align 8, !tbaa !72
  %11 = load i32, ptr %7, align 4, !tbaa !71
  %12 = load i64, ptr %8, align 8, !tbaa !87
  %13 = call i32 @hold_lock_file_for_update_timeout_mode(ptr noundef %9, ptr noundef %10, i32 noundef %11, i64 noundef %12, i32 noundef 438)
  ret i32 %13
}

; Function Attrs: inlinehint nounwind uwtable
define internal i32 @should_use_loose_object_map(ptr noundef %0) #3 {
  %2 = alloca ptr, align 8
  store ptr %0, ptr %2, align 8, !tbaa !15
  %3 = load ptr, ptr %2, align 8, !tbaa !15
  %4 = getelementptr inbounds nuw %struct.repository, ptr %3, i32 0, i32 18
  %5 = load ptr, ptr %4, align 8, !tbaa !57
  %6 = icmp ne ptr %5, null
  br i1 %6, label %7, label %12

7:                                                ; preds = %1
  %8 = load ptr, ptr %2, align 8, !tbaa !15
  %9 = getelementptr inbounds nuw %struct.repository, ptr %8, i32 0, i32 0
  %10 = load ptr, ptr %9, align 8, !tbaa !58
  %11 = icmp ne ptr %10, null
  br label %12

12:                                               ; preds = %7, %1
  %13 = phi i1 [ false, %1 ], [ %11, %7 ]
  %14 = zext i1 %13 to i32
  ret i32 %14
}

; Function Attrs: nounwind uwtable
define dso_local i32 @repo_write_loose_object_map(ptr noundef %0) #0 {
  %2 = alloca i32, align 4
  %3 = alloca ptr, align 8
  %4 = alloca ptr, align 8
  %5 = alloca %struct.lock_file, align 8
  %6 = alloca i32, align 4
  %7 = alloca i32, align 4
  %8 = alloca %struct.strbuf, align 8
  %9 = alloca %struct.strbuf, align 8
  %10 = alloca i32, align 4
  store ptr %0, ptr %3, align 8, !tbaa !15
  call void @llvm.lifetime.start.p0(i64 8, ptr %4) #11
  %11 = load ptr, ptr %3, align 8, !tbaa !15
  %12 = getelementptr inbounds nuw %struct.repository, ptr %11, i32 0, i32 2
  %13 = load ptr, ptr %12, align 8, !tbaa !17
  %14 = getelementptr inbounds nuw %struct.raw_object_store, ptr %13, i32 0, i32 0
  %15 = load ptr, ptr %14, align 8, !tbaa !38
  %16 = getelementptr inbounds nuw %struct.object_directory, ptr %15, i32 0, i32 3
  %17 = load ptr, ptr %16, align 8, !tbaa !59
  %18 = getelementptr inbounds nuw %struct.loose_object_map, ptr %17, i32 0, i32 0
  %19 = load ptr, ptr %18, align 8, !tbaa !11
  store ptr %19, ptr %4, align 8, !tbaa !76
  call void @llvm.lifetime.start.p0(i64 8, ptr %5) #11
  call void @llvm.lifetime.start.p0(i64 4, ptr %6) #11
  call void @llvm.lifetime.start.p0(i64 4, ptr %7) #11
  call void @llvm.lifetime.start.p0(i64 24, ptr %8) #11
  call void @llvm.memcpy.p0.p0.i64(ptr align 8 %8, ptr align 8 @__const.repo_write_loose_object_map.buf, i64 24, i1 false)
  call void @llvm.lifetime.start.p0(i64 24, ptr %9) #11
  call void @llvm.memcpy.p0.p0.i64(ptr align 8 %9, ptr align 8 @__const.repo_write_loose_object_map.path, i64 24, i1 false)
  %20 = load ptr, ptr %3, align 8, !tbaa !15
  %21 = call i32 @should_use_loose_object_map(ptr noundef %20)
  %22 = icmp ne i32 %21, 0
  br i1 %22, label %24, label %23

23:                                               ; preds = %1
  store i32 0, ptr %2, align 4
  store i32 1, ptr %10, align 4
  br label %133

24:                                               ; preds = %1
  %25 = load ptr, ptr %3, align 8, !tbaa !15
  call void (ptr, ptr, ptr, ...) @strbuf_git_common_path(ptr noundef %9, ptr noundef %25, ptr noundef @.str)
  %26 = getelementptr inbounds nuw %struct.strbuf, ptr %9, i32 0, i32 2
  %27 = load ptr, ptr %26, align 8, !tbaa !67
  %28 = call i32 @hold_lock_file_for_update_timeout(ptr noundef %5, ptr noundef %27, i32 noundef 1, i64 noundef -1)
  store i32 %28, ptr %6, align 4, !tbaa !71
  store i32 0, ptr %7, align 4, !tbaa !71
  %29 = load i32, ptr %6, align 4, !tbaa !71
  %30 = load ptr, ptr @loose_object_header, align 8, !tbaa !72
  %31 = load ptr, ptr @loose_object_header, align 8, !tbaa !72
  %32 = call i64 @strlen(ptr noundef %31) #13
  %33 = call i64 @write_in_full(i32 noundef %29, ptr noundef %30, i64 noundef %32)
  %34 = icmp slt i64 %33, 0
  br i1 %34, label %35, label %36

35:                                               ; preds = %24
  br label %126

36:                                               ; preds = %24
  br label %37

37:                                               ; preds = %113, %36
  %38 = load i32, ptr %7, align 4, !tbaa !71
  %39 = load ptr, ptr %4, align 8, !tbaa !76
  %40 = getelementptr inbounds nuw %struct.kh_oid_map, ptr %39, i32 0, i32 0
  %41 = load i32, ptr %40, align 8, !tbaa !77
  %42 = icmp ne i32 %38, %41
  br i1 %42, label %43, label %116

43:                                               ; preds = %37
  %44 = load ptr, ptr %4, align 8, !tbaa !76
  %45 = getelementptr inbounds nuw %struct.kh_oid_map, ptr %44, i32 0, i32 4
  %46 = load ptr, ptr %45, align 8, !tbaa !80
  %47 = load i32, ptr %7, align 4, !tbaa !71
  %48 = lshr i32 %47, 4
  %49 = zext i32 %48 to i64
  %50 = getelementptr inbounds nuw i32, ptr %46, i64 %49
  %51 = load i32, ptr %50, align 4, !tbaa !71
  %52 = load i32, ptr %7, align 4, !tbaa !71
  %53 = and i32 %52, 15
  %54 = shl i32 %53, 1
  %55 = lshr i32 %51, %54
  %56 = and i32 %55, 3
  %57 = icmp ne i32 %56, 0
  br i1 %57, label %112, label %58

58:                                               ; preds = %43
  %59 = load ptr, ptr %4, align 8, !tbaa !76
  %60 = getelementptr inbounds nuw %struct.kh_oid_map, ptr %59, i32 0, i32 5
  %61 = load ptr, ptr %60, align 8, !tbaa !81
  %62 = load i32, ptr %7, align 4, !tbaa !71
  %63 = zext i32 %62 to i64
  %64 = getelementptr inbounds nuw %struct.object_id, ptr %61, i64 %63
  %65 = load ptr, ptr %3, align 8, !tbaa !15
  %66 = getelementptr inbounds nuw %struct.repository, ptr %65, i32 0, i32 17
  %67 = load ptr, ptr %66, align 8, !tbaa !61
  %68 = getelementptr inbounds nuw %struct.git_hash_algo, ptr %67, i32 0, i32 10
  %69 = load ptr, ptr %68, align 8, !tbaa !62
  %70 = call i32 @oideq(ptr noundef %64, ptr noundef %69)
  %71 = icmp ne i32 %70, 0
  br i1 %71, label %86, label %72

72:                                               ; preds = %58
  %73 = load ptr, ptr %4, align 8, !tbaa !76
  %74 = getelementptr inbounds nuw %struct.kh_oid_map, ptr %73, i32 0, i32 5
  %75 = load ptr, ptr %74, align 8, !tbaa !81
  %76 = load i32, ptr %7, align 4, !tbaa !71
  %77 = zext i32 %76 to i64
  %78 = getelementptr inbounds nuw %struct.object_id, ptr %75, i64 %77
  %79 = load ptr, ptr %3, align 8, !tbaa !15
  %80 = getelementptr inbounds nuw %struct.repository, ptr %79, i32 0, i32 17
  %81 = load ptr, ptr %80, align 8, !tbaa !61
  %82 = getelementptr inbounds nuw %struct.git_hash_algo, ptr %81, i32 0, i32 11
  %83 = load ptr, ptr %82, align 8, !tbaa !65
  %84 = call i32 @oideq(ptr noundef %78, ptr noundef %83)
  %85 = icmp ne i32 %84, 0
  br i1 %85, label %86, label %87

86:                                               ; preds = %72, %58
  br label %113

87:                                               ; preds = %72
  %88 = load ptr, ptr %4, align 8, !tbaa !76
  %89 = getelementptr inbounds nuw %struct.kh_oid_map, ptr %88, i32 0, i32 5
  %90 = load ptr, ptr %89, align 8, !tbaa !81
  %91 = load i32, ptr %7, align 4, !tbaa !71
  %92 = zext i32 %91 to i64
  %93 = getelementptr inbounds nuw %struct.object_id, ptr %90, i64 %92
  %94 = call ptr @oid_to_hex(ptr noundef %93)
  %95 = load ptr, ptr %4, align 8, !tbaa !76
  %96 = getelementptr inbounds nuw %struct.kh_oid_map, ptr %95, i32 0, i32 6
  %97 = load ptr, ptr %96, align 8, !tbaa !82
  %98 = load i32, ptr %7, align 4, !tbaa !71
  %99 = zext i32 %98 to i64
  %100 = getelementptr inbounds nuw ptr, ptr %97, i64 %99
  %101 = load ptr, ptr %100, align 8, !tbaa !83
  %102 = call ptr @oid_to_hex(ptr noundef %101)
  call void (ptr, ptr, ...) @strbuf_addf(ptr noundef %8, ptr noundef @.str.1, ptr noundef %94, ptr noundef %102)
  %103 = load i32, ptr %6, align 4, !tbaa !71
  %104 = getelementptr inbounds nuw %struct.strbuf, ptr %8, i32 0, i32 2
  %105 = load ptr, ptr %104, align 8, !tbaa !67
  %106 = getelementptr inbounds nuw %struct.strbuf, ptr %8, i32 0, i32 1
  %107 = load i64, ptr %106, align 8, !tbaa !74
  %108 = call i64 @write_in_full(i32 noundef %103, ptr noundef %105, i64 noundef %107)
  %109 = icmp slt i64 %108, 0
  br i1 %109, label %110, label %111

110:                                              ; preds = %87
  br label %126

111:                                              ; preds = %87
  call void @strbuf_setlen(ptr noundef %8, i64 noundef 0)
  br label %112

112:                                              ; preds = %111, %43
  br label %113

113:                                              ; preds = %112, %86
  %114 = load i32, ptr %7, align 4, !tbaa !71
  %115 = add i32 %114, 1
  store i32 %115, ptr %7, align 4, !tbaa !71
  br label %37, !llvm.loop !84

116:                                              ; preds = %37
  call void @strbuf_release(ptr noundef %8)
  %117 = call i32 @commit_lock_file(ptr noundef %5)
  %118 = icmp slt i32 %117, 0
  br i1 %118, label %119, label %125

119:                                              ; preds = %116
  %120 = call ptr @_(ptr noundef @.str.2)
  %121 = getelementptr inbounds nuw %struct.strbuf, ptr %9, i32 0, i32 2
  %122 = load ptr, ptr %121, align 8, !tbaa !67
  %123 = call i32 (ptr, ...) @error_errno(ptr noundef %120, ptr noundef %122)
  %124 = call i32 @const_error()
  call void @strbuf_release(ptr noundef %9)
  store i32 -1, ptr %2, align 4
  store i32 1, ptr %10, align 4
  br label %133

125:                                              ; preds = %116
  call void @strbuf_release(ptr noundef %9)
  store i32 0, ptr %2, align 4
  store i32 1, ptr %10, align 4
  br label %133

126:                                              ; preds = %110, %35
  %127 = call i32 @rollback_lock_file(ptr noundef %5)
  call void @strbuf_release(ptr noundef %8)
  %128 = call ptr @_(ptr noundef @.str.3)
  %129 = getelementptr inbounds nuw %struct.strbuf, ptr %9, i32 0, i32 2
  %130 = load ptr, ptr %129, align 8, !tbaa !67
  %131 = call i32 (ptr, ...) @error_errno(ptr noundef %128, ptr noundef %130)
  %132 = call i32 @const_error()
  call void @strbuf_release(ptr noundef %9)
  store i32 -1, ptr %2, align 4
  store i32 1, ptr %10, align 4
  br label %133

133:                                              ; preds = %126, %125, %119, %23
  call void @llvm.lifetime.end.p0(i64 24, ptr %9) #11
  call void @llvm.lifetime.end.p0(i64 24, ptr %8) #11
  call void @llvm.lifetime.end.p0(i64 4, ptr %7) #11
  call void @llvm.lifetime.end.p0(i64 4, ptr %6) #11
  call void @llvm.lifetime.end.p0(i64 8, ptr %5) #11
  call void @llvm.lifetime.end.p0(i64 8, ptr %4) #11
  %134 = load i32, ptr %2, align 4
  ret i32 %134
}