; Function Attrs: nounwind uwtable
define dso_local range(i32 -1, 1) i32 @repo_write_loose_object_map(ptr noundef %0) local_unnamed_addr #0 {
  %2 = alloca %struct.lock_file, align 8
  %3 = alloca %struct.strbuf, align 8
  %4 = alloca %struct.strbuf, align 8
  %5 = getelementptr inbounds nuw i8, ptr %0, i64 16
  %6 = load ptr, ptr %5, align 8, !tbaa !35
  %7 = load ptr, ptr %6, align 8, !tbaa !56
  %8 = getelementptr inbounds nuw i8, ptr %7, i64 48
  %9 = load ptr, ptr %8, align 8, !tbaa !38
  %10 = load ptr, ptr %9, align 8, !tbaa !4
  call void @llvm.lifetime.start.p0(i64 8, ptr nonnull %2) #15
  call void @llvm.lifetime.start.p0(i64 24, ptr nonnull %3) #15
  call void @llvm.memcpy.p0.p0.i64(ptr noundef nonnull align 8 dereferenceable(24) %3, ptr noundef nonnull align 8 dereferenceable(24) @__const.write_one_object.path, i64 24, i1 false)
  call void @llvm.lifetime.start.p0(i64 24, ptr nonnull %4) #15
  call void @llvm.memcpy.p0.p0.i64(ptr noundef nonnull align 8 dereferenceable(24) %4, ptr noundef nonnull align 8 dereferenceable(24) @__const.write_one_object.path, i64 24, i1 false)
  %11 = getelementptr inbounds nuw i8, ptr %0, i64 408
  %12 = load ptr, ptr %11, align 8, !tbaa !13
  %.not.i = icmp eq ptr %12, null
  br i1 %.not.i, label %should_use_loose_object_map.exit.thread, label %should_use_loose_object_map.exit

should_use_loose_object_map.exit:                 ; preds = %1
  %13 = load ptr, ptr %0, align 8, !tbaa !34
  %.not33 = icmp eq ptr %13, null
  br i1 %.not33, label %should_use_loose_object_map.exit.thread, label %14

14:                                               ; preds = %should_use_loose_object_map.exit
  call void (ptr, ptr, ptr, ...) @strbuf_git_common_path(ptr noundef nonnull %4, ptr noundef nonnull %0, ptr noundef nonnull @.str) #15
  %15 = getelementptr inbounds nuw i8, ptr %4, i64 16
  %16 = load ptr, ptr %15, align 8, !tbaa !48
  %17 = call i32 @hold_lock_file_for_update_timeout_mode(ptr noundef nonnull %2, ptr noundef %16, i32 noundef 1, i64 noundef -1, i32 noundef 438) #15
  %18 = call i64 @write_in_full(i32 noundef %17, ptr noundef nonnull @.str.6, i64 noundef 19) #15
  %19 = icmp slt i64 %18, 0
  br i1 %19, label %.loopexit, label %.preheader

.preheader:                                       ; preds = %14
  %20 = load i32, ptr %10, align 8, !tbaa !68
  %.not2234 = icmp eq i32 %20, 0
  br i1 %.not2234, label %._crit_edge, label %.lr.ph

.lr.ph:                                           ; preds = %.preheader
  %21 = getelementptr inbounds nuw i8, ptr %10, i64 16
  %22 = getelementptr inbounds nuw i8, ptr %10, i64 24
  %23 = getelementptr inbounds nuw i8, ptr %0, i64 400
  %24 = getelementptr inbounds nuw i8, ptr %10, i64 32
  %25 = getelementptr inbounds nuw i8, ptr %3, i64 16
  %26 = getelementptr inbounds nuw i8, ptr %3, i64 8
  br label %27

27:                                               ; preds = %.lr.ph, %strbuf_setlen.exit
  %.035 = phi i32 [ 0, %.lr.ph ], [ %60, %strbuf_setlen.exit ]
  %28 = load ptr, ptr %21, align 8, !tbaa !71
  %29 = lshr i32 %.035, 4
  %30 = zext nneg i32 %29 to i64
  %31 = getelementptr inbounds nuw i32, ptr %28, i64 %30
  %32 = load i32, ptr %31, align 4, !tbaa !50
  %33 = shl i32 %.035, 1
  %34 = and i32 %33, 30
  %35 = shl nuw i32 3, %34
  %36 = and i32 %32, %35
  %.not23 = icmp eq i32 %36, 0
  br i1 %.not23, label %37, label %strbuf_setlen.exit

37:                                               ; preds = %27
  %38 = load ptr, ptr %22, align 8, !tbaa !72
  %39 = zext i32 %.035 to i64
  %40 = getelementptr inbounds nuw %struct.object_id, ptr %38, i64 %39
  %41 = load ptr, ptr %23, align 8, !tbaa !42
  %42 = getelementptr inbounds nuw i8, ptr %41, i64 80
  %43 = load ptr, ptr %42, align 8, !tbaa !43
  %bcmp.i = call i32 @bcmp(ptr noundef nonnull readonly dereferenceable(32) %40, ptr noundef nonnull readonly dereferenceable(32) %43, i64 32)
  %.not.i26.not = icmp eq i32 %bcmp.i, 0
  br i1 %.not.i26.not, label %strbuf_setlen.exit, label %44

44:                                               ; preds = %37
  %45 = getelementptr inbounds nuw i8, ptr %41, i64 88
  %46 = load ptr, ptr %45, align 8, !tbaa !46
  %bcmp.i27 = call i32 @bcmp(ptr noundef nonnull readonly dereferenceable(32) %40, ptr noundef nonnull readonly dereferenceable(32) %46, i64 32)
  %.not.i28.not = icmp eq i32 %bcmp.i27, 0
  br i1 %.not.i28.not, label %strbuf_setlen.exit, label %47

47:                                               ; preds = %44
  %48 = call ptr @oid_to_hex(ptr noundef nonnull %40) #15
  %49 = load ptr, ptr %24, align 8, !tbaa !73
  %50 = getelementptr inbounds nuw ptr, ptr %49, i64 %39
  %51 = load ptr, ptr %50, align 8, !tbaa !74
  %52 = call ptr @oid_to_hex(ptr noundef %51) #15
  call void (ptr, ptr, ...) @strbuf_addf(ptr noundef nonnull %3, ptr noundef nonnull @.str.1, ptr noundef %48, ptr noundef %52) #15
  %53 = load ptr, ptr %25, align 8, !tbaa !48
  %54 = load i64, ptr %26, align 8, !tbaa !53
  %55 = call i64 @write_in_full(i32 noundef %17, ptr noundef %53, i64 noundef %54) #15
  %56 = icmp slt i64 %55, 0
  br i1 %56, label %.loopexit, label %57

57:                                               ; preds = %47
  store i64 0, ptr %26, align 8, !tbaa !53
  %58 = load ptr, ptr %25, align 8, !tbaa !48
  %.not9.i = icmp eq ptr %58, @strbuf_slopbuf
  br i1 %.not9.i, label %strbuf_setlen.exit, label %59

59:                                               ; preds = %57
  store i8 0, ptr %58, align 1, !tbaa !52
  br label %strbuf_setlen.exit

strbuf_setlen.exit:                               ; preds = %59, %57, %27, %37, %44
  %60 = add i32 %.035, 1
  %61 = load i32, ptr %10, align 8, !tbaa !68
  %.not22 = icmp eq i32 %60, %61
  br i1 %.not22, label %._crit_edge, label %27, !llvm.loop !75

._crit_edge:                                      ; preds = %strbuf_setlen.exit, %.preheader
  call void @strbuf_release(ptr noundef nonnull %3) #15
  %62 = call i32 @commit_lock_file(ptr noundef nonnull %2) #15
  %63 = icmp slt i32 %62, 0
  br i1 %63, label %64, label %should_use_loose_object_map.exit.thread.sink.split

64:                                               ; preds = %._crit_edge
  %65 = load i32, ptr @git_gettext_enabled, align 4, !tbaa !50
  %.not4.i = icmp eq i32 %65, 0
  br i1 %.not4.i, label %should_use_loose_object_map.exit.thread.sink.split.sink.split, label %should_use_loose_object_map.exit.thread.sink.split.sink.split.sink.split

.loopexit:                                        ; preds = %47, %14
  %66 = call i32 @delete_tempfile(ptr noundef nonnull %2) #15
  call void @strbuf_release(ptr noundef nonnull %3) #15
  %67 = load i32, ptr @git_gettext_enabled, align 4, !tbaa !50
  %.not4.i29 = icmp eq i32 %67, 0
  br i1 %.not4.i29, label %should_use_loose_object_map.exit.thread.sink.split.sink.split, label %should_use_loose_object_map.exit.thread.sink.split.sink.split.sink.split

should_use_loose_object_map.exit.thread.sink.split.sink.split.sink.split: ; preds = %.loopexit, %64
  %.str.3.sink = phi ptr [ @.str.2, %64 ], [ @.str.3, %.loopexit ]
  %68 = call ptr @dcgettext(ptr noundef null, ptr noundef nonnull %.str.3.sink, i32 noundef 5) #15
  br label %should_use_loose_object_map.exit.thread.sink.split.sink.split

should_use_loose_object_map.exit.thread.sink.split.sink.split: ; preds = %should_use_loose_object_map.exit.thread.sink.split.sink.split.sink.split, %.loopexit, %64
  %.0.i.sink = phi ptr [ @.str.2, %64 ], [ @.str.3, %.loopexit ], [ %68, %should_use_loose_object_map.exit.thread.sink.split.sink.split.sink.split ]
  %69 = load ptr, ptr %15, align 8, !tbaa !48
  %70 = call i32 (ptr, ...) @error_errno(ptr noundef %.0.i.sink, ptr noundef %69) #15
  br label %should_use_loose_object_map.exit.thread.sink.split

should_use_loose_object_map.exit.thread.sink.split: ; preds = %should_use_loose_object_map.exit.thread.sink.split.sink.split, %._crit_edge
  %.021.ph = phi i32 [ 0, %._crit_edge ], [ -1, %should_use_loose_object_map.exit.thread.sink.split.sink.split ]
  call void @strbuf_release(ptr noundef nonnull %4) #15
  br label %should_use_loose_object_map.exit.thread

should_use_loose_object_map.exit.thread:          ; preds = %should_use_loose_object_map.exit.thread.sink.split, %1, %should_use_loose_object_map.exit
  %.021 = phi i32 [ 0, %should_use_loose_object_map.exit ], [ 0, %1 ], [ %.021.ph, %should_use_loose_object_map.exit.thread.sink.split ]
  call void @llvm.lifetime.end.p0(i64 24, ptr nonnull %4) #15
  call void @llvm.lifetime.end.p0(i64 24, ptr nonnull %3) #15
  call void @llvm.lifetime.end.p0(i64 8, ptr nonnull %2) #15
  ret i32 %.021
}